#include <math.h>
#include <stdio.h>
#include <stdlib.h>
#include <string.h>

void main()
{
	char *p[300];
	int i=0,k;
	p[i]=(char*)malloc(30*sizeof(char));
	while(scanf("%s",p[i])!=EOF)
	{
		i++;
		p[i]=(char*)malloc(30*sizeof(char));
	}
	k=i-1;
	for(i=k;i>=0;i--)
	{
		if(i==k) printf("%s",p[i]);
		else printf(" %s",p[i]);
	}
}