; ModuleID = '23/1023.c'
source_filename = "23/1023.c"
target datalayout = "e-m:e-p270:32:32-p271:32:32-p272:64:64-i64:64-f80:128-n8:16:32:64-S128"
target triple = "x86_64-pc-linux-gnu"

@.str = private unnamed_addr constant [3 x i8] c"%s\00", align 1
@.str.1 = private unnamed_addr constant [4 x i8] c" %s\00", align 1

; Function Attrs: noinline nounwind uwtable
define dso_local void @main() #0 {
  %1 = alloca [300 x i8*], align 16
  %2 = alloca i32, align 4
  %3 = alloca i32, align 4
  store i32 0, i32* %2, align 4
  %4 = call noalias i8* @malloc(i64 30) #3
  %5 = load i32, i32* %2, align 4
  %6 = sext i32 %5 to i64
  %7 = getelementptr inbounds [300 x i8*], [300 x i8*]* %1, i64 0, i64 %6
  store i8* %4, i8** %7, align 8
  br label %8

8:                                                ; preds = %15, %0
  %9 = load i32, i32* %2, align 4
  %10 = sext i32 %9 to i64
  %11 = getelementptr inbounds [300 x i8*], [300 x i8*]* %1, i64 0, i64 %10
  %12 = load i8*, i8** %11, align 8
  %13 = call i32 (i8*, ...) @__isoc99_scanf(i8* getelementptr inbounds ([3 x i8], [3 x i8]* @.str, i64 0, i64 0), i8* %12)
  %14 = icmp ne i32 %13, -1
  br i1 %14, label %15, label %22

15:                                               ; preds = %8
  %16 = load i32, i32* %2, align 4
  %17 = add nsw i32 %16, 1
  store i32 %17, i32* %2, align 4
  %18 = call noalias i8* @malloc(i64 30) #3
  %19 = load i32, i32* %2, align 4
  %20 = sext i32 %19 to i64
  %21 = getelementptr inbounds [300 x i8*], [300 x i8*]* %1, i64 0, i64 %20
  store i8* %18, i8** %21, align 8
  br label %8

22:                                               ; preds = %8
  %23 = load i32, i32* %2, align 4
  %24 = sub nsw i32 %23, 1
  store i32 %24, i32* %3, align 4
  %25 = load i32, i32* %3, align 4
  store i32 %25, i32* %2, align 4
  br label %26

26:                                               ; preds = %46, %22
  %27 = load i32, i32* %2, align 4
  %28 = icmp sge i32 %27, 0
  br i1 %28, label %29, label %49

29:                                               ; preds = %26
  %30 = load i32, i32* %2, align 4
  %31 = load i32, i32* %3, align 4
  %32 = icmp eq i32 %30, %31
  br i1 %32, label %33, label %39

33:                                               ; preds = %29
  %34 = load i32, i32* %2, align 4
  %35 = sext i32 %34 to i64
  %36 = getelementptr inbounds [300 x i8*], [300 x i8*]* %1, i64 0, i64 %35
  %37 = load i8*, i8** %36, align 8
  %38 = call i32 (i8*, ...) @printf(i8* getelementptr inbounds ([3 x i8], [3 x i8]* @.str, i64 0, i64 0), i8* %37)
  br label %45

39:                                               ; preds = %29
  %40 = load i32, i32* %2, align 4
  %41 = sext i32 %40 to i64
  %42 = getelementptr inbounds [300 x i8*], [300 x i8*]* %1, i64 0, i64 %41
  %43 = load i8*, i8** %42, align 8
  %44 = call i32 (i8*, ...) @printf(i8* getelementptr inbounds ([4 x i8], [4 x i8]* @.str.1, i64 0, i64 0), i8* %43)
  br label %45

45:                                               ; preds = %39, %33
  br label %46

46:                                               ; preds = %45
  %47 = load i32, i32* %2, align 4
  %48 = add nsw i32 %47, -1
  store i32 %48, i32* %2, align 4
  br label %26

49:                                               ; preds = %26
  ret void
}

; Function Attrs: nounwind
declare dso_local noalias i8* @malloc(i64) #1

declare dso_local i32 @__isoc99_scanf(i8*, ...) #2

declare dso_local i32 @printf(i8*, ...) #2


!llvm.module.flags = !{!0}
!llvm.ident = !{!1}

!0 = !{i32 1, !"wchar_size", i32 4}
!1 = !{!"clang version 10.0.0-4ubuntu1 "}
