; ModuleID = 'source-C-CXX/22/1023.c'
source_filename = "source-C-CXX/22/1023.c"
target datalayout = "e-m:e-p270:32:32-p271:32:32-p272:64:64-i64:64-f80:128-n8:16:32:64-S128"
target triple = "x86_64-pc-linux-gnu"

@.str = private unnamed_addr constant [3 x i8] c"%s\00", align 1
@.str.1 = private unnamed_addr constant [4 x i8] c" %s\00", align 1

; Function Attrs: nofree nounwind sspstrong uwtable
define dso_local void @main() local_unnamed_addr #0 {
  %1 = alloca [300 x i8*], align 16
  %2 = bitcast [300 x i8*]* %1 to i8*
  call void @llvm.lifetime.start.p0i8(i64 2400, i8* nonnull %2) #4
  %3 = tail call noalias align 16 dereferenceable_or_null(30) i8* @malloc(i64 30) #4
  %4 = getelementptr inbounds [300 x i8*], [300 x i8*]* %1, i64 0, i64 0
  store i8* %3, i8** %4, align 16, !tbaa !5
  %5 = tail call i32 (i8*, ...) @__isoc99_scanf(i8* getelementptr inbounds ([3 x i8], [3 x i8]* @.str, i64 0, i64 0), i8* %3)
  %6 = icmp eq i32 %5, -1
  br i1 %6, label %31, label %7

7:                                                ; preds = %0, %7
  %8 = phi i64 [ %9, %7 ], [ 0, %0 ]
  %9 = add nuw nsw i64 %8, 1
  %10 = tail call noalias align 16 dereferenceable_or_null(30) i8* @malloc(i64 30) #4
  %11 = getelementptr inbounds [300 x i8*], [300 x i8*]* %1, i64 0, i64 %9
  store i8* %10, i8** %11, align 8, !tbaa !5
  %12 = tail call i32 (i8*, ...) @__isoc99_scanf(i8* getelementptr inbounds ([3 x i8], [3 x i8]* @.str, i64 0, i64 0), i8* %10)
  %13 = icmp eq i32 %12, -1
  br i1 %13, label %14, label %7, !llvm.loop !9

14:                                               ; preds = %7
  %15 = trunc i64 %9 to i32
  %16 = icmp sgt i32 %15, 0
  br i1 %16, label %17, label %31

17:                                               ; preds = %14
  %18 = add nsw i32 %15, -1
  %19 = zext i32 %18 to i64
  %20 = getelementptr inbounds [300 x i8*], [300 x i8*]* %1, i64 0, i64 %19
  %21 = load i8*, i8** %20, align 8, !tbaa !5
  %22 = tail call i32 (i8*, ...) @printf(i8* nonnull dereferenceable(1) getelementptr inbounds ([3 x i8], [3 x i8]* @.str, i64 0, i64 0), i8* %21)
  %23 = icmp eq i32 %18, 0
  br i1 %23, label %31, label %24

24:                                               ; preds = %17, %24
  %25 = phi i64 [ %26, %24 ], [ %19, %17 ]
  %26 = add nsw i64 %25, -1
  %27 = getelementptr inbounds [300 x i8*], [300 x i8*]* %1, i64 0, i64 %26
  %28 = load i8*, i8** %27, align 8, !tbaa !5
  %29 = tail call i32 (i8*, ...) @printf(i8* nonnull dereferenceable(1) getelementptr inbounds ([4 x i8], [4 x i8]* @.str.1, i64 0, i64 0), i8* %28)
  %30 = icmp sgt i64 %25, 1
  br i1 %30, label %24, label %31, !llvm.loop !11

31:                                               ; preds = %24, %0, %17, %14
  call void @llvm.lifetime.end.p0i8(i64 2400, i8* nonnull %2) #4
  ret void
}

; Function Attrs: argmemonly mustprogress nofree nosync nounwind willreturn
declare void @llvm.lifetime.start.p0i8(i64 immarg, i8* nocapture) #1

; Function Attrs: inaccessiblememonly mustprogress nofree nounwind willreturn
declare noalias noundef align 16 i8* @malloc(i64 noundef) local_unnamed_addr #2

; Function Attrs: nofree nounwind
declare noundef i32 @__isoc99_scanf(i8* nocapture noundef readonly, ...) local_unnamed_addr #3

; Function Attrs: nofree nounwind
declare noundef i32 @printf(i8* nocapture noundef readonly, ...) local_unnamed_addr #3

; Function Attrs: argmemonly mustprogress nofree nosync nounwind willreturn
declare void @llvm.lifetime.end.p0i8(i64 immarg, i8* nocapture) #1


!llvm.module.flags = !{!0, !1, !2, !3}
!llvm.ident = !{!4}

!0 = !{i32 1, !"wchar_size", i32 4}
!1 = !{i32 7, !"PIC Level", i32 2}
!2 = !{i32 7, !"PIE Level", i32 2}
!3 = !{i32 7, !"uwtable", i32 1}
!4 = !{!"clang version 13.0.0"}
!5 = !{!6, !6, i64 0}
!6 = !{!"any pointer", !7, i64 0}
!7 = !{!"omnipotent char", !8, i64 0}
!8 = !{!"Simple C/C++ TBAA"}
!9 = distinct !{!9, !10}
!10 = !{!"llvm.loop.mustprogress"}
!11 = distinct !{!11, !10, !12}
!12 = !{!"llvm.loop.peeled.count", i32 1}
